target datalayout = "e-m:e-p270:32:32-p271:32:32-p272:64:64-i64:64-i128:128-f80:128-n8:16:32:64-S128"
target triple = "x86_64-pc-linux-gnu"

%"class.llvm::ilist_node_base" = type { %"class.llvm::ilist_detail::node_base_prevnext" }
%"class.llvm::ilist_detail::node_base_prevnext" = type { ptr, ptr }
%"class.llvm::ilist_iterator_w_bits" = type <{ ptr, i8, i8, [6 x i8] }>
%"class.llvm::BasicBlock" = type { %"class.llvm::Value", %"class.llvm::ilist_node_with_parent", i8, i32, %"class.llvm::SymbolTableList", ptr }
%"class.llvm::Value" = type { i8, i8, i16, i32, ptr, ptr }
%"class.llvm::ilist_node_with_parent" = type { %"class.llvm::ilist_node" }
%"class.llvm::ilist_node" = type { %"class.llvm::ilist_node_impl" }
%"class.llvm::ilist_node_impl" = type { %"class.llvm::ilist_node_base" }
%"class.llvm::SymbolTableList" = type { %"class.llvm::iplist_impl" }
%"class.llvm::iplist_impl" = type { %"class.llvm::simple_ilist" }
%"class.llvm::simple_ilist" = type { %"class.llvm::ilist_sentinel" }
%"class.llvm::ilist_sentinel" = type { %"class.llvm::ilist_node_impl.3" }
%"class.llvm::ilist_node_impl.3" = type { %"class.llvm::ilist_node_base.4" }
%"class.llvm::ilist_node_base.4" = type { %"class.llvm::ilist_detail::node_base_prevnext.5", %"class.llvm::ilist_detail::node_base_parent.6" }
%"class.llvm::ilist_detail::node_base_prevnext.5" = type { ptr, ptr }
%"class.llvm::ilist_detail::node_base_parent.6" = type { ptr }
%"class.llvm::ilist_iterator_w_bits.405" = type <{ ptr, i8, i8, [6 x i8] }>

; Function Attrs: mustprogress nounwind uwtable
define linkonce_odr hidden noundef ptr @_ZN4llvm12ilist_detail10NodeAccess11getValuePtrINS0_12node_optionsINS_11InstructionELb0ELb0EvLb1ENS_10BasicBlockEEEEENT_13const_pointerEPKNS_15ilist_node_implIS7_EE(ptr noundef %0) #1 comdat align 2 {
  %2 = alloca ptr, align 8
  store ptr %0, ptr %2, align 8
  %3 = load ptr, ptr %2, align 8
  %4 = icmp eq ptr %3, null
  br i1 %4, label %7, label %5

5:                                                ; preds = %1
  %6 = getelementptr inbounds i8, ptr %3, i64 -24
  br label %8

7:                                                ; preds = %1
  br label %8

8:                                                ; preds = %7, %5
  %9 = phi ptr [ %6, %5 ], [ null, %7 ]
  ret ptr %9
}

; Function Attrs: mustprogress nounwind uwtable
define linkonce_odr hidden noundef ptr @_ZNK4llvm12ilist_detail18node_base_prevnextINS_15ilist_node_baseILb0ENS_10BasicBlockEEELb0EE7getPrevEv(ptr noundef nonnull align 8 dereferenceable(16) %0) #1 comdat align 2 {
  %2 = alloca ptr, align 8
  store ptr %0, ptr %2, align 8
  %3 = load ptr, ptr %2, align 8
  %4 = getelementptr inbounds nuw %"class.llvm::ilist_detail::node_base_prevnext.5", ptr %3, i32 0, i32 0
  %5 = load ptr, ptr %4, align 8
  ret ptr %5
}

; Function Attrs: mustprogress nounwind uwtable
define linkonce_odr hidden noundef i32 @_ZNK4llvm5Value10getValueIDEv(ptr noundef nonnull align 8 dereferenceable(24) %0) #1 comdat align 2 {
  %2 = alloca ptr, align 8
  store ptr %0, ptr %2, align 8
  %3 = load ptr, ptr %2, align 8
  %4 = getelementptr inbounds nuw %"class.llvm::Value", ptr %3, i32 0, i32 0
  %5 = load i8, ptr %4, align 8
  %6 = zext i8 %5 to i32
  ret i32 %6
}

; Function Attrs: mustprogress nounwind uwtable
define linkonce_odr hidden noundef ptr @_ZN4llvm12ilist_detail18SpecificNodeAccessINS0_12node_optionsINS_11InstructionELb0ELb0EvLb1ENS_10BasicBlockEEEE11getValuePtrEPKNS_15ilist_node_implIS5_EE(ptr noundef %0) #1 comdat align 2 {
  %2 = alloca ptr, align 8
  store ptr %0, ptr %2, align 8
  %3 = load ptr, ptr %2, align 8
  %4 = call noundef ptr @_ZN4llvm12ilist_detail10NodeAccess11getValuePtrINS0_12node_optionsINS_11InstructionELb0ELb0EvLb1ENS_10BasicBlockEEEEENT_13const_pointerEPKNS_15ilist_node_implIS7_EE(ptr noundef %3)
  ret ptr %4
}

; Function Attrs: mustprogress nounwind uwtable
define linkonce_odr hidden noundef nonnull align 8 dereferenceable(10) ptr @_ZN4llvm21ilist_iterator_w_bitsINS_12ilist_detail12node_optionsINS_11InstructionELb0ELb0EvLb1ENS_10BasicBlockEEELb1ELb1EEppEv(ptr noundef nonnull align 8 dereferenceable(10) %0) #1 comdat align 2 {
  %2 = alloca ptr, align 8
  store ptr %0, ptr %2, align 8
  %3 = load ptr, ptr %2, align 8
  %4 = getelementptr inbounds nuw %"class.llvm::ilist_iterator_w_bits.405", ptr %3, i32 0, i32 0
  %5 = load ptr, ptr %4, align 8
  %6 = call noundef ptr @_ZNK4llvm15ilist_node_implINS_12ilist_detail12node_optionsINS_11InstructionELb0ELb0EvLb1ENS_10BasicBlockEEEE7getPrevEv(ptr noundef nonnull align 8 dereferenceable(24) %5)
  %7 = getelementptr inbounds nuw %"class.llvm::ilist_iterator_w_bits.405", ptr %3, i32 0, i32 0
  store ptr %6, ptr %7, align 8
  %8 = getelementptr inbounds nuw %"class.llvm::ilist_iterator_w_bits.405", ptr %3, i32 0, i32 1
  store i8 0, ptr %8, align 8
  %9 = getelementptr inbounds nuw %"class.llvm::ilist_iterator_w_bits.405", ptr %3, i32 0, i32 2
  store i8 0, ptr %9, align 1
  ret ptr %3
}

; Function Attrs: mustprogress nounwind uwtable
define linkonce_odr hidden void @_ZN4llvm21ilist_iterator_w_bitsINS_12ilist_detail12node_optionsINS_11InstructionELb0ELb0EvLb1ENS_10BasicBlockEEELb1ELb1EEC2ERKNS_15ilist_node_implIS5_EE(ptr noundef nonnull align 8 dereferenceable(10) %0, ptr noundef nonnull align 8 dereferenceable(24) %1) unnamed_addr #1 comdat align 2 {
  %3 = alloca ptr, align 8
  %4 = alloca ptr, align 8
  store ptr %0, ptr %3, align 8
  store ptr %1, ptr %4, align 8
  %5 = load ptr, ptr %3, align 8
  %6 = getelementptr inbounds nuw %"class.llvm::ilist_iterator_w_bits.405", ptr %5, i32 0, i32 0
  %7 = load ptr, ptr %4, align 8
  store ptr %7, ptr %6, align 8
  %8 = getelementptr inbounds nuw %"class.llvm::ilist_iterator_w_bits.405", ptr %5, i32 0, i32 1
  store i8 0, ptr %8, align 8
  %9 = getelementptr inbounds nuw %"class.llvm::ilist_iterator_w_bits.405", ptr %5, i32 0, i32 2
  store i8 0, ptr %9, align 1
  ret void
}

; Function Attrs: mustprogress nounwind uwtable
define linkonce_odr hidden noundef ptr @_ZNK4llvm15ilist_node_implINS_12ilist_detail12node_optionsINS_11InstructionELb0ELb0EvLb1ENS_10BasicBlockEEEE7getPrevEv(ptr noundef nonnull align 8 dereferenceable(24) %0) #1 comdat align 2 {
  %2 = alloca ptr, align 8
  store ptr %0, ptr %2, align 8
  %3 = load ptr, ptr %2, align 8
  %4 = call noundef ptr @_ZNK4llvm12ilist_detail18node_base_prevnextINS_15ilist_node_baseILb0ENS_10BasicBlockEEELb0EE7getPrevEv(ptr noundef nonnull align 8 dereferenceable(16) %3)
  ret ptr %4
}

; Function Attrs: mustprogress nounwind uwtable
define linkonce_odr hidden noundef zeroext i1 @_ZN4llvm11Instruction12isTerminatorEj(i32 noundef %0) #1 comdat align 2 {
  %2 = alloca i32, align 4
  store i32 %0, ptr %2, align 4
  %3 = load i32, ptr %2, align 4
  %4 = icmp uge i32 %3, 1
  br i1 %4, label %5, label %8

5:                                                ; preds = %1
  %6 = load i32, ptr %2, align 4
  %7 = icmp ult i32 %6, 12
  br label %8

8:                                                ; preds = %5, %1
  %9 = phi i1 [ false, %1 ], [ %7, %5 ]
  ret i1 %9
}

; Function Attrs: mustprogress nounwind uwtable
define linkonce_odr hidden noundef i32 @_ZNK4llvm11Instruction9getOpcodeEv(ptr noundef nonnull align 8 dereferenceable(72) %0) #1 comdat align 2 {
  %2 = alloca ptr, align 8
  store ptr %0, ptr %2, align 8
  %3 = load ptr, ptr %2, align 8
  %4 = call noundef i32 @_ZNK4llvm5Value10getValueIDEv(ptr noundef nonnull align 8 dereferenceable(24) %3)
  %5 = sub i32 %4, 29
  ret i32 %5
}

; Function Attrs: mustprogress nounwind uwtable
define linkonce_odr hidden noundef nonnull align 8 dereferenceable(72) ptr @_ZNK4llvm21ilist_iterator_w_bitsINS_12ilist_detail12node_optionsINS_11InstructionELb0ELb0EvLb1ENS_10BasicBlockEEELb1ELb1EEdeEv(ptr noundef nonnull align 8 dereferenceable(10) %0) #1 comdat align 2 {
  %2 = alloca ptr, align 8
  store ptr %0, ptr %2, align 8
  %3 = load ptr, ptr %2, align 8
  %4 = getelementptr inbounds nuw %"class.llvm::ilist_iterator_w_bits.405", ptr %3, i32 0, i32 0
  %5 = load ptr, ptr %4, align 8
  %6 = call noundef ptr @_ZN4llvm12ilist_detail18SpecificNodeAccessINS0_12node_optionsINS_11InstructionELb0ELb0EvLb1ENS_10BasicBlockEEEE11getValuePtrEPKNS_15ilist_node_implIS5_EE(ptr noundef %5)
  ret ptr %6
}

; Function Attrs: mustprogress nounwind uwtable
define linkonce_odr hidden { ptr, i64 } @_ZNK4llvm12simple_ilistINS_11InstructionEJNS_19ilist_iterator_bitsILb1EEENS_12ilist_parentINS_10BasicBlockEEEEE6rbeginEv(ptr noundef nonnull align 8 dereferenceable(24) %0) #1 comdat align 2 {
  %2 = alloca %"class.llvm::ilist_iterator_w_bits.405", align 8
  %3 = alloca ptr, align 8
  %4 = alloca %"class.llvm::ilist_iterator_w_bits.405", align 8
  store ptr %0, ptr %3, align 8
  %5 = load ptr, ptr %3, align 8
  %6 = getelementptr inbounds nuw %"class.llvm::simple_ilist", ptr %5, i32 0, i32 0
  call void @_ZN4llvm21ilist_iterator_w_bitsINS_12ilist_detail12node_optionsINS_11InstructionELb0ELb0EvLb1ENS_10BasicBlockEEELb1ELb1EEC2ERKNS_15ilist_node_implIS5_EE(ptr noundef nonnull align 8 dereferenceable(10) %4, ptr noundef nonnull align 8 dereferenceable(24) %6)
  %7 = call noundef nonnull align 8 dereferenceable(10) ptr @_ZN4llvm21ilist_iterator_w_bitsINS_12ilist_detail12node_optionsINS_11InstructionELb0ELb0EvLb1ENS_10BasicBlockEEELb1ELb1EEppEv(ptr noundef nonnull align 8 dereferenceable(10) %4)
  call void @llvm.memcpy.p0.p0.i64(ptr align 8 %2, ptr align 8 %7, i64 16, i1 false)
  %8 = load { ptr, i64 }, ptr %2, align 8
  ret { ptr, i64 } %8
}

; Function Attrs: mustprogress nounwind uwtable
define linkonce_odr hidden noundef zeroext i1 @_ZNK4llvm14ilist_sentinelINS_12ilist_detail12node_optionsINS_11InstructionELb0ELb0EvLb1ENS_10BasicBlockEEEE5emptyEv(ptr noundef nonnull align 8 dereferenceable(24) %0) #1 comdat align 2 {
  %2 = alloca ptr, align 8
  store ptr %0, ptr %2, align 8
  %3 = load ptr, ptr %2, align 8
  %4 = call noundef ptr @_ZNK4llvm15ilist_node_implINS_12ilist_detail12node_optionsINS_11InstructionELb0ELb0EvLb1ENS_10BasicBlockEEEE7getPrevEv(ptr noundef nonnull align 8 dereferenceable(24) %3)
  %5 = icmp eq ptr %3, %4
  ret i1 %5
}

; Function Attrs: mustprogress nounwind uwtable
define linkonce_odr hidden noundef zeroext i1 @_ZNK4llvm11Instruction12isTerminatorEv(ptr noundef nonnull align 8 dereferenceable(72) %0) #1 comdat align 2 {
  %2 = alloca ptr, align 8
  store ptr %0, ptr %2, align 8
  %3 = load ptr, ptr %2, align 8
  %4 = call noundef i32 @_ZNK4llvm11Instruction9getOpcodeEv(ptr noundef nonnull align 8 dereferenceable(72) %3)
  %5 = call noundef zeroext i1 @_ZN4llvm11Instruction12isTerminatorEj(i32 noundef %4)
  ret i1 %5
}

; Function Attrs: mustprogress nounwind uwtable
define linkonce_odr hidden noundef nonnull align 8 dereferenceable(72) ptr @_ZNK4llvm12simple_ilistINS_11InstructionEJNS_19ilist_iterator_bitsILb1EEENS_12ilist_parentINS_10BasicBlockEEEEE4backEv(ptr noundef nonnull align 8 dereferenceable(24) %0) #1 comdat align 2 {
  %2 = alloca ptr, align 8
  %3 = alloca %"class.llvm::ilist_iterator_w_bits.405", align 8
  %4 = alloca { ptr, i64 }, align 8
  store ptr %0, ptr %2, align 8
  %5 = load ptr, ptr %2, align 8
  %6 = call { ptr, i64 } @_ZNK4llvm12simple_ilistINS_11InstructionEJNS_19ilist_iterator_bitsILb1EEENS_12ilist_parentINS_10BasicBlockEEEEE6rbeginEv(ptr noundef nonnull align 8 dereferenceable(24) %5)
  store { ptr, i64 } %6, ptr %4, align 8
  call void @llvm.memcpy.p0.p0.i64(ptr align 8 %3, ptr align 8 %4, i64 10, i1 false)
  %7 = call noundef nonnull align 8 dereferenceable(72) ptr @_ZNK4llvm21ilist_iterator_w_bitsINS_12ilist_detail12node_optionsINS_11InstructionELb0ELb0EvLb1ENS_10BasicBlockEEELb1ELb1EEdeEv(ptr noundef nonnull align 8 dereferenceable(10) %3)
  ret ptr %7
}

; Function Attrs: mustprogress nounwind uwtable
define linkonce_odr hidden noundef zeroext i1 @_ZNK4llvm12simple_ilistINS_11InstructionEJNS_19ilist_iterator_bitsILb1EEENS_12ilist_parentINS_10BasicBlockEEEEE5emptyEv(ptr noundef nonnull align 8 dereferenceable(24) %0) #1 comdat align 2 {
  %2 = alloca ptr, align 8
  store ptr %0, ptr %2, align 8
  %3 = load ptr, ptr %2, align 8
  %4 = getelementptr inbounds nuw %"class.llvm::simple_ilist", ptr %3, i32 0, i32 0
  %5 = call noundef zeroext i1 @_ZNK4llvm14ilist_sentinelINS_12ilist_detail12node_optionsINS_11InstructionELb0ELb0EvLb1ENS_10BasicBlockEEEE5emptyEv(ptr noundef nonnull align 8 dereferenceable(24) %4)
  ret i1 %5
}

; Function Attrs: mustprogress nounwind willreturn memory(read) uwtable
define linkonce_odr hidden noundef ptr @_ZNK4llvm10BasicBlock13getTerminatorEv(ptr noundef nonnull align 8 dereferenceable(80) %0) #6 comdat align 2 {
  %2 = alloca ptr, align 8
  %3 = alloca ptr, align 8
  store ptr %0, ptr %3, align 8
  %4 = load ptr, ptr %3, align 8
  %5 = getelementptr inbounds nuw %"class.llvm::BasicBlock", ptr %4, i32 0, i32 4
  %6 = call noundef zeroext i1 @_ZNK4llvm12simple_ilistINS_11InstructionEJNS_19ilist_iterator_bitsILb1EEENS_12ilist_parentINS_10BasicBlockEEEEE5emptyEv(ptr noundef nonnull align 8 dereferenceable(24) %5)
  br i1 %6, label %11, label %7

7:                                                ; preds = %1
  %8 = getelementptr inbounds nuw %"class.llvm::BasicBlock", ptr %4, i32 0, i32 4
  %9 = call noundef nonnull align 8 dereferenceable(72) ptr @_ZNK4llvm12simple_ilistINS_11InstructionEJNS_19ilist_iterator_bitsILb1EEENS_12ilist_parentINS_10BasicBlockEEEEE4backEv(ptr noundef nonnull align 8 dereferenceable(24) %8)
  %10 = call noundef zeroext i1 @_ZNK4llvm11Instruction12isTerminatorEv(ptr noundef nonnull align 8 dereferenceable(72) %9)
  br i1 %10, label %12, label %11

11:                                               ; preds = %7, %1
  store ptr null, ptr %2, align 8
  br label %15

12:                                               ; preds = %7
  %13 = getelementptr inbounds nuw %"class.llvm::BasicBlock", ptr %4, i32 0, i32 4
  %14 = call noundef nonnull align 8 dereferenceable(72) ptr @_ZNK4llvm12simple_ilistINS_11InstructionEJNS_19ilist_iterator_bitsILb1EEENS_12ilist_parentINS_10BasicBlockEEEEE4backEv(ptr noundef nonnull align 8 dereferenceable(24) %13)
  store ptr %14, ptr %2, align 8
  br label %15

15:                                               ; preds = %12, %11
  %16 = load ptr, ptr %2, align 8
  ret ptr %16
}

; Function Attrs: mustprogress nounwind uwtable
define linkonce_odr hidden noundef ptr @_ZN4llvm10BasicBlock13getTerminatorEv(ptr noundef nonnull align 8 dereferenceable(80) %0) #1 comdat align 2 {
  %2 = alloca ptr, align 8
  store ptr %0, ptr %2, align 8
  %3 = load ptr, ptr %2, align 8
  %4 = call noundef ptr @_ZNK4llvm10BasicBlock13getTerminatorEv(ptr noundef nonnull align 8 dereferenceable(80) %3) #13
  ret ptr %4
}

; Function Attrs: mustprogress nounwind uwtable
define dso_local void @_ZN4llvm29SplitBlockAndInsertIfThenElseEPNS_5ValueENS_21ilist_iterator_w_bitsINS_12ilist_detail12node_optionsINS_11InstructionELb0ELb0EvLb1ENS_10BasicBlockEEELb0ELb0EEEPPS5_SA_PNS_6MDNodeEPNS_14DomTreeUpdaterEPNS_8LoopInfoE(ptr noundef %0, ptr %1, i64 %2, ptr noundef %3, ptr noundef %4, ptr noundef %5, ptr noundef %6, ptr noundef %7) #1 {
  %9 = alloca %"class.llvm::ilist_iterator_w_bits", align 8
  %10 = alloca ptr, align 8
  %11 = alloca ptr, align 8
  %12 = alloca ptr, align 8
  %13 = alloca ptr, align 8
  %14 = alloca ptr, align 8
  %15 = alloca ptr, align 8
  %16 = alloca ptr, align 8
  %17 = alloca ptr, align 8
  %18 = alloca %"class.llvm::ilist_iterator_w_bits", align 8
  %19 = getelementptr inbounds nuw { ptr, i64 }, ptr %9, i32 0, i32 0
  store ptr %1, ptr %19, align 8
  %20 = getelementptr inbounds nuw { ptr, i64 }, ptr %9, i32 0, i32 1
  store i64 %2, ptr %20, align 8
  store ptr %0, ptr %10, align 8
  store ptr %3, ptr %11, align 8
  store ptr %4, ptr %12, align 8
  store ptr %5, ptr %13, align 8
  store ptr %6, ptr %14, align 8
  store ptr %7, ptr %15, align 8
  store ptr null, ptr %16, align 8
  store ptr null, ptr %17, align 8
  %21 = load ptr, ptr %10, align 8
  call void @llvm.memcpy.p0.p0.i64(ptr align 8 %18, ptr align 8 %9, i64 16, i1 false)
  %22 = load ptr, ptr %13, align 8
  %23 = load ptr, ptr %14, align 8
  %24 = load ptr, ptr %15, align 8
  %25 = getelementptr inbounds nuw { ptr, i64 }, ptr %18, i32 0, i32 0
  %26 = load ptr, ptr %25, align 8
  %27 = getelementptr inbounds nuw { ptr, i64 }, ptr %18, i32 0, i32 1
  %28 = load i64, ptr %27, align 8
  call void @_ZN4llvm29SplitBlockAndInsertIfThenElseEPNS_5ValueENS_21ilist_iterator_w_bitsINS_12ilist_detail12node_optionsINS_11InstructionELb0ELb0EvLb1ENS_10BasicBlockEEELb0ELb0EEEPPS6_SA_bbPNS_6MDNodeEPNS_14DomTreeUpdaterEPNS_8LoopInfoE(ptr noundef %21, ptr %26, i64 %28, ptr noundef %16, ptr noundef %17, i1 noundef zeroext false, i1 noundef zeroext false, ptr noundef %22, ptr noundef %23, ptr noundef %24)
  %29 = load ptr, ptr %16, align 8
  %30 = call noundef ptr @_ZN4llvm10BasicBlock13getTerminatorEv(ptr noundef nonnull align 8 dereferenceable(80) %29)
  %31 = load ptr, ptr %11, align 8
  store ptr %30, ptr %31, align 8
  %32 = load ptr, ptr %17, align 8
  %33 = call noundef ptr @_ZN4llvm10BasicBlock13getTerminatorEv(ptr noundef nonnull align 8 dereferenceable(80) %32)
  %34 = load ptr, ptr %12, align 8
  store ptr %33, ptr %34, align 8
  ret void
}