; Function Attrs: mustprogress nounwind uwtable
define dso_local void @_ZN4llvm29SplitBlockAndInsertIfThenElseEPNS_5ValueENS_21ilist_iterator_w_bitsINS_12ilist_detail12node_optionsINS_11InstructionELb0ELb0EvLb1ENS_10BasicBlockEEELb0ELb0EEEPPS5_SA_PNS_6MDNodeEPNS_14DomTreeUpdaterEPNS_8LoopInfoE(ptr noundef %0, ptr %1, i64 %2, ptr nocapture noundef writeonly %3, ptr nocapture noundef writeonly %4, ptr noundef %5, ptr noundef %6, ptr noundef %7) local_unnamed_addr #0 {
  %9 = alloca ptr, align 8
  %10 = alloca ptr, align 8
  store ptr null, ptr %9, align 8
  store ptr null, ptr %10, align 8
  call void @_ZN4llvm29SplitBlockAndInsertIfThenElseEPNS_5ValueENS_21ilist_iterator_w_bitsINS_12ilist_detail12node_optionsINS_11InstructionELb0ELb0EvLb1ENS_10BasicBlockEEELb0ELb0EEEPPS6_SA_bbPNS_6MDNodeEPNS_14DomTreeUpdaterEPNS_8LoopInfoE(ptr noundef %0, ptr %1, i64 %2, ptr noundef nonnull %9, ptr noundef nonnull %10, i1 noundef zeroext false, i1 noundef zeroext false, ptr noundef %5, ptr noundef %6, ptr noundef %7)
  %11 = load ptr, ptr %9, align 8
  %12 = getelementptr inbounds nuw i8, ptr %11, i64 48
  %13 = load ptr, ptr %12, align 8
  %14 = icmp eq ptr %12, %13
  br i1 %14, label %_ZN4llvm10BasicBlock13getTerminatorEv.exit, label %15

15:                                               ; preds = %8
  %16 = getelementptr inbounds i8, ptr %13, i64 -24
  %17 = load i8, ptr %16, align 8
  %18 = zext i8 %17 to i32
  %19 = add nsw i32 %18, -30
  %20 = icmp ult i32 %19, 11
  %spec.select.i.i = select i1 %20, ptr %16, ptr null
  br label %_ZN4llvm10BasicBlock13getTerminatorEv.exit

_ZN4llvm10BasicBlock13getTerminatorEv.exit:       ; preds = %8, %15
  %.0.i.i = phi ptr [ null, %8 ], [ %spec.select.i.i, %15 ]
  store ptr %.0.i.i, ptr %3, align 8
  %21 = load ptr, ptr %10, align 8
  %22 = getelementptr inbounds nuw i8, ptr %21, i64 48
  %23 = load ptr, ptr %22, align 8
  %24 = icmp eq ptr %22, %23
  br i1 %24, label %_ZN4llvm10BasicBlock13getTerminatorEv.exit10, label %25

25:                                               ; preds = %_ZN4llvm10BasicBlock13getTerminatorEv.exit
  %26 = getelementptr inbounds i8, ptr %23, i64 -24
  %27 = load i8, ptr %26, align 8
  %28 = zext i8 %27 to i32
  %29 = add nsw i32 %28, -30
  %30 = icmp ult i32 %29, 11
  %spec.select.i.i8 = select i1 %30, ptr %26, ptr null
  br label %_ZN4llvm10BasicBlock13getTerminatorEv.exit10

_ZN4llvm10BasicBlock13getTerminatorEv.exit10:     ; preds = %_ZN4llvm10BasicBlock13getTerminatorEv.exit, %25
  %.0.i.i9 = phi ptr [ null, %_ZN4llvm10BasicBlock13getTerminatorEv.exit ], [ %spec.select.i.i8, %25 ]
  store ptr %.0.i.i9, ptr %4, align 8
  ret void
}